target datalayout = "e-m:e-p270:32:32-p271:32:32-p272:64:64-i64:64-i128:128-f80:128-n8:16:32:64-S128"
target triple = "x86_64-unknown-linux-gnu"

%"class.hermes::Type" = type { i16, i16 }
%"class.hermes::UnaryOperatorInst" = type { %"class.hermes::SingleOperandInst.base", i32 }
%"class.hermes::SingleOperandInst.base" = type { %"class.hermes::Instruction.base" }
%"class.hermes::Instruction.base" = type <{ %"class.llvh::ilist_node_with_parent", %"class.hermes::Value", ptr, %"class.llvh::SmallVector.0", ptr, %"class.llvh::SMLoc", i32 }>
%"class.llvh::ilist_node_with_parent" = type { %"class.llvh::ilist_node" }
%"class.llvh::ilist_node" = type { %"class.llvh::ilist_node_impl" }
%"class.llvh::ilist_node_impl" = type { %"class.llvh::ilist_node_base" }
%"class.llvh::ilist_node_base" = type { ptr, ptr }
%"class.hermes::Value" = type { i8, %"class.hermes::Type", %"class.llvh::SmallVector" }
%"class.llvh::SmallVector" = type { %"class.llvh::SmallVectorImpl", %"struct.llvh::SmallVectorStorage" }
%"class.llvh::SmallVectorImpl" = type { %"class.llvh::SmallVectorTemplateBase" }
%"class.llvh::SmallVectorTemplateBase" = type { %"class.llvh::SmallVectorTemplateCommon" }
%"class.llvh::SmallVectorTemplateCommon" = type { %"class.llvh::SmallVectorBase" }
%"class.llvh::SmallVectorBase" = type { ptr, i32, i32 }
%"struct.llvh::SmallVectorStorage" = type { [2 x %"struct.llvh::AlignedCharArrayUnion"] }
%"struct.llvh::AlignedCharArrayUnion" = type { %"struct.llvh::AlignedCharArray" }
%"struct.llvh::AlignedCharArray" = type { [8 x i8] }
%"class.llvh::SmallVector.0" = type { %"class.llvh::SmallVectorImpl.1", %"struct.llvh::SmallVectorStorage.4" }
%"class.llvh::SmallVectorImpl.1" = type { %"class.llvh::SmallVectorTemplateBase.2" }
%"class.llvh::SmallVectorTemplateBase.2" = type { %"class.llvh::SmallVectorTemplateCommon.3" }
%"class.llvh::SmallVectorTemplateCommon.3" = type { %"class.llvh::SmallVectorBase" }
%"struct.llvh::SmallVectorStorage.4" = type { [2 x %"struct.llvh::AlignedCharArrayUnion.5"] }
%"struct.llvh::AlignedCharArrayUnion.5" = type { %"struct.llvh::AlignedCharArray.6" }
%"struct.llvh::AlignedCharArray.6" = type { [16 x i8] }
%"class.llvh::SMLoc" = type { ptr }
%"class.hermes::Instruction::Variety" = type { %"struct.std::pair.40" }
%"struct.std::pair.40" = type { i32, i32 }
%"class.hermes::BinaryOperatorInst" = type { %"class.hermes::Instruction.base", i32 }
%"class.hermes::CompareBranchInst" = type { %"class.hermes::TerminatorInst.base", i32 }
%"class.hermes::TerminatorInst.base" = type { %"class.hermes::Instruction.base" }

; Function Attrs: mustprogress nounwind uwtable
define linkonce_odr noundef zeroext i1 @_ZSteqIjjEbRKSt4pairIT_T0_ES5_(ptr noundef nonnull align 4 dereferenceable(8) %__x, ptr noundef nonnull align 4 dereferenceable(8) %__y) #0 comdat {
entry:
  %__x.addr = alloca ptr, align 8
  %__y.addr = alloca ptr, align 8
  store ptr %__x, ptr %__x.addr, align 8
  store ptr %__y, ptr %__y.addr, align 8
  %0 = load ptr, ptr %__x.addr, align 8
  %first = getelementptr inbounds %"struct.std::pair.40", ptr %0, i32 0, i32 0
  %1 = load i32, ptr %first, align 4
  %2 = load ptr, ptr %__y.addr, align 8
  %first1 = getelementptr inbounds %"struct.std::pair.40", ptr %2, i32 0, i32 0
  %3 = load i32, ptr %first1, align 4
  %cmp = icmp eq i32 %1, %3
  br i1 %cmp, label %land.rhs, label %land.end

land.rhs:                                         ; preds = %entry
  %4 = load ptr, ptr %__x.addr, align 8
  %second = getelementptr inbounds %"struct.std::pair.40", ptr %4, i32 0, i32 1
  %5 = load i32, ptr %second, align 4
  %6 = load ptr, ptr %__y.addr, align 8
  %second2 = getelementptr inbounds %"struct.std::pair.40", ptr %6, i32 0, i32 1
  %7 = load i32, ptr %second2, align 4
  %cmp3 = icmp eq i32 %5, %7
  br label %land.end

land.end:                                         ; preds = %land.rhs, %entry
  %8 = phi i1 [ false, %entry ], [ %cmp3, %land.rhs ]
  ret i1 %8
}

; Function Attrs: mustprogress nounwind uwtable
define linkonce_odr void @_ZNSt4pairIjjEC2IjRjTnNSt9enable_ifIXaaclsr5_PCCPE22_MoveConstructiblePairIT_T0_EEclsr5_PCCPE30_ImplicitlyMoveConvertiblePairIS4_S5_EEEbE4typeELb1EEEOS4_OS5_(ptr noundef nonnull align 4 dereferenceable(8) %this, ptr noundef nonnull align 4 dereferenceable(4) %__x, ptr noundef nonnull align 4 dereferenceable(4) %__y) unnamed_addr #0 comdat align 2 {
entry:
  %this.addr = alloca ptr, align 8
  %__x.addr = alloca ptr, align 8
  %__y.addr = alloca ptr, align 8
  store ptr %this, ptr %this.addr, align 8
  store ptr %__x, ptr %__x.addr, align 8
  store ptr %__y, ptr %__y.addr, align 8
  %this1 = load ptr, ptr %this.addr, align 8
  %first = getelementptr inbounds %"struct.std::pair.40", ptr %this1, i32 0, i32 0
  %0 = load ptr, ptr %__x.addr, align 8
  %1 = load i32, ptr %0, align 4
  store i32 %1, ptr %first, align 4
  %second = getelementptr inbounds %"struct.std::pair.40", ptr %this1, i32 0, i32 1
  %2 = load ptr, ptr %__y.addr, align 8
  %3 = load i32, ptr %2, align 4
  store i32 %3, ptr %second, align 4
  ret void
}

; Function Attrs: mustprogress nounwind uwtable
define linkonce_odr hidden noundef ptr @_ZN4llvh16cast_convert_valIN6hermes17CompareBranchInstEPKNS1_11InstructionES5_E4doitERKS5_(ptr noundef nonnull align 8 dereferenceable(8) %Val) #0 comdat align 2 {
entry:
  %Val.addr = alloca ptr, align 8
  %Res2 = alloca ptr, align 8
  store ptr %Val, ptr %Val.addr, align 8
  %0 = load ptr, ptr %Val.addr, align 8
  %1 = load ptr, ptr %0, align 8
  store ptr %1, ptr %Res2, align 8
  %2 = load ptr, ptr %Res2, align 8
  ret ptr %2
}

; Function Attrs: mustprogress nounwind uwtable
define linkonce_odr hidden noundef ptr @_ZN4llvh16cast_convert_valIN6hermes17UnaryOperatorInstEPKNS1_11InstructionES5_E4doitERKS5_(ptr noundef nonnull align 8 dereferenceable(8) %Val) #0 comdat align 2 {
entry:
  %Val.addr = alloca ptr, align 8
  %Res2 = alloca ptr, align 8
  store ptr %Val, ptr %Val.addr, align 8
  %0 = load ptr, ptr %Val.addr, align 8
  %1 = load ptr, ptr %0, align 8
  store ptr %1, ptr %Res2, align 8
  %2 = load ptr, ptr %Res2, align 8
  ret ptr %2
}

; Function Attrs: mustprogress nounwind uwtable
define linkonce_odr hidden noundef ptr @_ZN4llvh16cast_convert_valIN6hermes18BinaryOperatorInstEPKNS1_11InstructionES5_E4doitERKS5_(ptr noundef nonnull align 8 dereferenceable(8) %Val) #0 comdat align 2 {
entry:
  %Val.addr = alloca ptr, align 8
  %Res2 = alloca ptr, align 8
  store ptr %Val, ptr %Val.addr, align 8
  %0 = load ptr, ptr %Val.addr, align 8
  %1 = load ptr, ptr %0, align 8
  store ptr %1, ptr %Res2, align 8
  %2 = load ptr, ptr %Res2, align 8
  ret ptr %2
}

; Function Attrs: mustprogress nounwind uwtable
define linkonce_odr noundef zeroext i1 @_ZStneIjjEbRKSt4pairIT_T0_ES5_(ptr noundef nonnull align 4 dereferenceable(8) %__x, ptr noundef nonnull align 4 dereferenceable(8) %__y) #0 comdat {
entry:
  %__x.addr = alloca ptr, align 8
  %__y.addr = alloca ptr, align 8
  store ptr %__x, ptr %__x.addr, align 8
  store ptr %__y, ptr %__y.addr, align 8
  %0 = load ptr, ptr %__x.addr, align 8
  %1 = load ptr, ptr %__y.addr, align 8
  %call = call noundef zeroext i1 @_ZSteqIjjEbRKSt4pairIT_T0_ES5_(ptr noundef nonnull align 4 dereferenceable(8) %0, ptr noundef nonnull align 4 dereferenceable(8) %1)
  %lnot = xor i1 %call, true
  ret i1 %lnot
}

; Function Attrs: mustprogress nounwind uwtable
define linkonce_odr hidden void @_ZN6hermes11Instruction7VarietyC2ESt4pairIjjE(ptr noundef nonnull align 4 dereferenceable(8) %this, i64 %kinds.coerce) unnamed_addr #0 comdat align 2 {
entry:
  %kinds = alloca %"struct.std::pair.40", align 4
  %this.addr = alloca ptr, align 8
  store i64 %kinds.coerce, ptr %kinds, align 4
  store ptr %this, ptr %this.addr, align 8
  %this1 = load ptr, ptr %this.addr, align 8
  %kinds_ = getelementptr inbounds %"class.hermes::Instruction::Variety", ptr %this1, i32 0, i32 0
  call void @llvm.memcpy.p0.p0.i64(ptr align 4 %kinds_, ptr align 4 %kinds, i64 8, i1 false)
  ret void
}

; Function Attrs: mustprogress nounwind uwtable
define linkonce_odr i64 @_ZSt9make_pairIjRjESt4pairINSt25__strip_reference_wrapperINSt5decayIT_E4typeEE6__typeENS2_INS3_IT0_E4typeEE6__typeEEOS4_OS9_(ptr noundef nonnull align 4 dereferenceable(4) %__x, ptr noundef nonnull align 4 dereferenceable(4) %__y) #0 comdat {
entry:
  %retval = alloca %"struct.std::pair.40", align 4
  %__x.addr = alloca ptr, align 8
  %__y.addr = alloca ptr, align 8
  store ptr %__x, ptr %__x.addr, align 8
  store ptr %__y, ptr %__y.addr, align 8
  %0 = load ptr, ptr %__x.addr, align 8
  %1 = load ptr, ptr %__y.addr, align 8
  call void @_ZNSt4pairIjjEC2IjRjTnNSt9enable_ifIXaaclsr5_PCCPE22_MoveConstructiblePairIT_T0_EEclsr5_PCCPE30_ImplicitlyMoveConvertiblePairIS4_S5_EEEbE4typeELb1EEEOS4_OS5_(ptr noundef nonnull align 4 dereferenceable(8) %retval, ptr noundef nonnull align 4 dereferenceable(4) %0, ptr noundef nonnull align 4 dereferenceable(4) %1)
  %2 = load i64, ptr %retval, align 4
  ret i64 %2
}

; Function Attrs: mustprogress nounwind uwtable
define linkonce_odr hidden noundef i32 @_ZNK6hermes17CompareBranchInst15getOperatorKindEv(ptr noundef nonnull align 8 dereferenceable(136) %this) #0 comdat align 2 {
entry:
  %this.addr = alloca ptr, align 8
  store ptr %this, ptr %this.addr, align 8
  %this1 = load ptr, ptr %this.addr, align 8
  %op_ = getelementptr inbounds %"class.hermes::CompareBranchInst", ptr %this1, i32 0, i32 1
  %0 = load i32, ptr %op_, align 4
  ret i32 %0
}

; Function Attrs: mustprogress nounwind uwtable
define linkonce_odr hidden noundef ptr @_ZN4llvh4castIN6hermes17CompareBranchInstEKNS1_11InstructionEEENS_10cast_rettyIT_PT0_E8ret_typeES8_(ptr noundef %Val) #0 comdat {
entry:
  %Val.addr = alloca ptr, align 8
  store ptr %Val, ptr %Val.addr, align 8
  %call = call noundef ptr @_ZN4llvh16cast_convert_valIN6hermes17CompareBranchInstEPKNS1_11InstructionES5_E4doitERKS5_(ptr noundef nonnull align 8 dereferenceable(8) %Val.addr)
  ret ptr %call
}

; Function Attrs: mustprogress nounwind uwtable
define linkonce_odr hidden noundef i32 @_ZNK6hermes17UnaryOperatorInst15getOperatorKindEv(ptr noundef nonnull align 8 dereferenceable(136) %this) #0 comdat align 2 {
entry:
  %this.addr = alloca ptr, align 8
  store ptr %this, ptr %this.addr, align 8
  %this1 = load ptr, ptr %this.addr, align 8
  %op_ = getelementptr inbounds %"class.hermes::UnaryOperatorInst", ptr %this1, i32 0, i32 1
  %0 = load i32, ptr %op_, align 4
  ret i32 %0
}

; Function Attrs: mustprogress nounwind uwtable
define linkonce_odr hidden noundef ptr @_ZN4llvh4castIN6hermes17UnaryOperatorInstEKNS1_11InstructionEEENS_10cast_rettyIT_PT0_E8ret_typeES8_(ptr noundef %Val) #0 comdat {
entry:
  %Val.addr = alloca ptr, align 8
  store ptr %Val, ptr %Val.addr, align 8
  %call = call noundef ptr @_ZN4llvh16cast_convert_valIN6hermes17UnaryOperatorInstEPKNS1_11InstructionES5_E4doitERKS5_(ptr noundef nonnull align 8 dereferenceable(8) %Val.addr)
  ret ptr %call
}

; Function Attrs: mustprogress nounwind uwtable
define linkonce_odr hidden noundef i32 @_ZNK6hermes18BinaryOperatorInst15getOperatorKindEv(ptr noundef nonnull align 8 dereferenceable(136) %this) #0 comdat align 2 {
entry:
  %this.addr = alloca ptr, align 8
  store ptr %this, ptr %this.addr, align 8
  %this1 = load ptr, ptr %this.addr, align 8
  %op_ = getelementptr inbounds %"class.hermes::BinaryOperatorInst", ptr %this1, i32 0, i32 1
  %0 = load i32, ptr %op_, align 4
  ret i32 %0
}

; Function Attrs: mustprogress nounwind uwtable
define linkonce_odr hidden noundef ptr @_ZN4llvh4castIN6hermes18BinaryOperatorInstEKNS1_11InstructionEEENS_10cast_rettyIT_PT0_E8ret_typeES8_(ptr noundef %Val) #0 comdat {
entry:
  %Val.addr = alloca ptr, align 8
  store ptr %Val, ptr %Val.addr, align 8
  %call = call noundef ptr @_ZN4llvh16cast_convert_valIN6hermes18BinaryOperatorInstEPKNS1_11InstructionES5_E4doitERKS5_(ptr noundef nonnull align 8 dereferenceable(8) %Val.addr)
  ret ptr %call
}

; Function Attrs: mustprogress nounwind uwtable
define linkonce_odr hidden noundef zeroext i8 @_ZNK6hermes5Value7getKindEv(ptr noundef nonnull align 8 dereferenceable(40) %this) #0 comdat align 2 {
entry:
  %this.addr = alloca ptr, align 8
  store ptr %this, ptr %this.addr, align 8
  %this1 = load ptr, ptr %this.addr, align 8
  %Kind = getelementptr inbounds %"class.hermes::Value", ptr %this1, i32 0, i32 0
  %0 = load i8, ptr %Kind, align 8
  ret i8 %0
}

; Function Attrs: mustprogress nounwind uwtable
define linkonce_odr hidden noundef zeroext i1 @_ZNK6hermes11Instruction7VarietyneERKS1_(ptr noundef nonnull align 4 dereferenceable(8) %this, ptr noundef nonnull align 4 dereferenceable(8) %other) #0 comdat align 2 {
entry:
  %this.addr = alloca ptr, align 8
  %other.addr = alloca ptr, align 8
  store ptr %this, ptr %this.addr, align 8
  store ptr %other, ptr %other.addr, align 8
  %this1 = load ptr, ptr %this.addr, align 8
  %kinds_ = getelementptr inbounds %"class.hermes::Instruction::Variety", ptr %this1, i32 0, i32 0
  %0 = load ptr, ptr %other.addr, align 8
  %kinds_2 = getelementptr inbounds %"class.hermes::Instruction::Variety", ptr %0, i32 0, i32 0
  %call = call noundef zeroext i1 @_ZStneIjjEbRKSt4pairIT_T0_ES5_(ptr noundef nonnull align 4 dereferenceable(8) %kinds_, ptr noundef nonnull align 4 dereferenceable(8) %kinds_2)
  ret i1 %call
}

; Function Attrs: mustprogress nounwind uwtable
define hidden i64 @_ZNK6hermes11Instruction10getVarietyEv(ptr noundef nonnull align 8 dereferenceable(132) %this) #0 align 2 {
entry:
  %retval = alloca %"class.hermes::Instruction::Variety", align 4
  %this.addr = alloca ptr, align 8
  %kind = alloca i8, align 1
  %operatorKind = alloca i32, align 4
  %agg.tmp = alloca %"struct.std::pair.40", align 4
  %ref.tmp = alloca i32, align 4
  store ptr %this, ptr %this.addr, align 8
  %this1 = load ptr, ptr %this.addr, align 8
  %add.ptr = getelementptr inbounds i8, ptr %this1, i64 16
  %call = call noundef zeroext i8 @_ZNK6hermes5Value7getKindEv(ptr noundef nonnull align 8 dereferenceable(40) %add.ptr)
  store i8 %call, ptr %kind, align 1
  %0 = load i8, ptr %kind, align 1
  switch i8 %0, label %sw.default [
    i8 34, label %sw.bb
    i8 26, label %sw.bb4
    i8 86, label %sw.bb7
  ]

sw.bb:                                            ; preds = %entry
  %call2 = call noundef ptr @_ZN4llvh4castIN6hermes18BinaryOperatorInstEKNS1_11InstructionEEENS_10cast_rettyIT_PT0_E8ret_typeES8_(ptr noundef %this1)
  %call3 = call noundef i32 @_ZNK6hermes18BinaryOperatorInst15getOperatorKindEv(ptr noundef nonnull align 8 dereferenceable(136) %call2)
  store i32 %call3, ptr %operatorKind, align 4
  br label %sw.epilog

sw.bb4:                                           ; preds = %entry
  %call5 = call noundef ptr @_ZN4llvh4castIN6hermes17UnaryOperatorInstEKNS1_11InstructionEEENS_10cast_rettyIT_PT0_E8ret_typeES8_(ptr noundef %this1)
  %call6 = call noundef i32 @_ZNK6hermes17UnaryOperatorInst15getOperatorKindEv(ptr noundef nonnull align 8 dereferenceable(136) %call5)
  store i32 %call6, ptr %operatorKind, align 4
  br label %sw.epilog

sw.bb7:                                           ; preds = %entry
  %call8 = call noundef ptr @_ZN4llvh4castIN6hermes17CompareBranchInstEKNS1_11InstructionEEENS_10cast_rettyIT_PT0_E8ret_typeES8_(ptr noundef %this1)
  %call9 = call noundef i32 @_ZNK6hermes17CompareBranchInst15getOperatorKindEv(ptr noundef nonnull align 8 dereferenceable(136) %call8)
  store i32 %call9, ptr %operatorKind, align 4
  br label %sw.epilog

sw.default:                                       ; preds = %entry
  store i32 0, ptr %operatorKind, align 4
  br label %sw.epilog

sw.epilog:                                        ; preds = %sw.default, %sw.bb7, %sw.bb4, %sw.bb
  %1 = load i8, ptr %kind, align 1
  %conv = zext i8 %1 to i32
  store i32 %conv, ptr %ref.tmp, align 4
  %call10 = call i64 @_ZSt9make_pairIjRjESt4pairINSt25__strip_reference_wrapperINSt5decayIT_E4typeEE6__typeENS2_INS3_IT0_E4typeEE6__typeEEOS4_OS9_(ptr noundef nonnull align 4 dereferenceable(4) %ref.tmp, ptr noundef nonnull align 4 dereferenceable(4) %operatorKind)
  store i64 %call10, ptr %agg.tmp, align 4
  %2 = load i64, ptr %agg.tmp, align 4
  call void @_ZN6hermes11Instruction7VarietyC2ESt4pairIjjE(ptr noundef nonnull align 4 dereferenceable(8) %retval, i64 %2)
  %coerce.dive = getelementptr inbounds %"class.hermes::Instruction::Variety", ptr %retval, i32 0, i32 0
  %3 = load i64, ptr %coerce.dive, align 4
  ret i64 %3
}

; Function Attrs: mustprogress nounwind uwtable
define hidden noundef zeroext i1 @_ZNK6hermes11Instruction13isIdenticalToEPKS0_(ptr noundef nonnull align 8 dereferenceable(132) %this, ptr noundef %RHS) #0 align 2 {
entry:
  %retval = alloca i1, align 1
  %this.addr = alloca ptr, align 8
  %RHS.addr = alloca ptr, align 8
  %ref.tmp = alloca %"class.hermes::Instruction::Variety", align 4
  %ref.tmp2 = alloca %"class.hermes::Instruction::Variety", align 4
  %i = alloca i32, align 4
  %e = alloca i32, align 4
  store ptr %this, ptr %this.addr, align 8
  store ptr %RHS, ptr %RHS.addr, align 8
  %this1 = load ptr, ptr %this.addr, align 8
  %call = call i64 @_ZNK6hermes11Instruction10getVarietyEv(ptr noundef nonnull align 8 dereferenceable(132) %this1)
  %coerce.dive = getelementptr inbounds %"class.hermes::Instruction::Variety", ptr %ref.tmp, i32 0, i32 0
  store i64 %call, ptr %coerce.dive, align 4
  %0 = load ptr, ptr %RHS.addr, align 8
  %call3 = call i64 @_ZNK6hermes11Instruction10getVarietyEv(ptr noundef nonnull align 8 dereferenceable(132) %0)
  %coerce.dive4 = getelementptr inbounds %"class.hermes::Instruction::Variety", ptr %ref.tmp2, i32 0, i32 0
  store i64 %call3, ptr %coerce.dive4, align 4
  %call5 = call noundef zeroext i1 @_ZNK6hermes11Instruction7VarietyneERKS1_(ptr noundef nonnull align 4 dereferenceable(8) %ref.tmp, ptr noundef nonnull align 4 dereferenceable(8) %ref.tmp2)
  br i1 %call5, label %lor.end, label %lor.rhs

lor.rhs:                                          ; preds = %entry
  %call6 = call noundef i32 @_ZNK6hermes11Instruction14getNumOperandsEv(ptr noundef nonnull align 8 dereferenceable(132) %this1)
  %1 = load ptr, ptr %RHS.addr, align 8
  %call7 = call noundef i32 @_ZNK6hermes11Instruction14getNumOperandsEv(ptr noundef nonnull align 8 dereferenceable(132) %1)
  %cmp = icmp ne i32 %call6, %call7
  br label %lor.end

lor.end:                                          ; preds = %lor.rhs, %entry
  %2 = phi i1 [ true, %entry ], [ %cmp, %lor.rhs ]
  br i1 %2, label %if.then, label %if.end

if.then:                                          ; preds = %lor.end
  store i1 false, ptr %retval, align 1
  br label %return

if.end:                                           ; preds = %lor.end
  store i32 0, ptr %i, align 4
  %call8 = call noundef i32 @_ZNK6hermes11Instruction14getNumOperandsEv(ptr noundef nonnull align 8 dereferenceable(132) %this1)
  store i32 %call8, ptr %e, align 4
  br label %for.cond

for.cond:                                         ; preds = %for.inc, %if.end
  %3 = load i32, ptr %i, align 4
  %4 = load i32, ptr %e, align 4
  %cmp9 = icmp ne i32 %3, %4
  br i1 %cmp9, label %for.body, label %for.end

for.body:                                         ; preds = %for.cond
  %5 = load i32, ptr %i, align 4
  %call10 = call noundef ptr @_ZNK6hermes11Instruction10getOperandEj(ptr noundef nonnull align 8 dereferenceable(132) %this1, i32 noundef %5)
  %6 = load ptr, ptr %RHS.addr, align 8
  %7 = load i32, ptr %i, align 4
  %call11 = call noundef ptr @_ZNK6hermes11Instruction10getOperandEj(ptr noundef nonnull align 8 dereferenceable(132) %6, i32 noundef %7)
  %cmp12 = icmp ne ptr %call10, %call11
  br i1 %cmp12, label %if.then13, label %if.end14

if.then13:                                        ; preds = %for.body
  store i1 false, ptr %retval, align 1
  br label %return

if.end14:                                         ; preds = %for.body
  br label %for.inc

for.inc:                                          ; preds = %if.end14
  %8 = load i32, ptr %i, align 4
  %inc = add i32 %8, 1
  store i32 %inc, ptr %i, align 4
  br label %for.cond, !llvm.loop !11

for.end:                                          ; preds = %for.cond
  store i1 true, ptr %retval, align 1
  br label %return

return:                                           ; preds = %for.end, %if.then13, %if.then
  %9 = load i1, ptr %retval, align 1
  ret i1 %9
}