; Function Attrs: mustprogress nounwind uwtable
define hidden noundef zeroext i1 @_ZNK6hermes11Instruction13isIdenticalToEPKS0_(ptr noundef nonnull align 8 dereferenceable(132) %this, ptr noundef %RHS) local_unnamed_addr #0 align 2 {
entry:
  %add.ptr.i = getelementptr inbounds nuw i8, ptr %this, i64 16
  %0 = load i8, ptr %add.ptr.i, align 8
  switch i8 %0, label %_ZNK6hermes11Instruction10getVarietyEv.exit [
    i8 34, label %sw.epilog.sink.split.i
    i8 26, label %sw.epilog.sink.split.i
    i8 86, label %sw.epilog.sink.split.i
  ]

sw.epilog.sink.split.i:                           ; preds = %entry, %entry, %entry
  %op_.i3.i = getelementptr inbounds nuw i8, ptr %this, i64 132
  %1 = load i32, ptr %op_.i3.i, align 4
  br label %_ZNK6hermes11Instruction10getVarietyEv.exit

_ZNK6hermes11Instruction10getVarietyEv.exit:      ; preds = %entry, %sw.epilog.sink.split.i
  %operatorKind.0.i = phi i32 [ 0, %entry ], [ %1, %sw.epilog.sink.split.i ]
  %add.ptr.i6 = getelementptr inbounds nuw i8, ptr %RHS, i64 16
  %2 = load i8, ptr %add.ptr.i6, align 8
  switch i8 %2, label %_ZNK6hermes11Instruction10getVarietyEv.exit12 [
    i8 34, label %sw.epilog.sink.split.i7
    i8 26, label %sw.epilog.sink.split.i7
    i8 86, label %sw.epilog.sink.split.i7
  ]

sw.epilog.sink.split.i7:                          ; preds = %_ZNK6hermes11Instruction10getVarietyEv.exit, %_ZNK6hermes11Instruction10getVarietyEv.exit, %_ZNK6hermes11Instruction10getVarietyEv.exit
  %op_.i3.i8 = getelementptr inbounds nuw i8, ptr %RHS, i64 132
  %3 = load i32, ptr %op_.i3.i8, align 4
  br label %_ZNK6hermes11Instruction10getVarietyEv.exit12

_ZNK6hermes11Instruction10getVarietyEv.exit12:    ; preds = %_ZNK6hermes11Instruction10getVarietyEv.exit, %sw.epilog.sink.split.i7
  %operatorKind.0.i9 = phi i32 [ 0, %_ZNK6hermes11Instruction10getVarietyEv.exit ], [ %3, %sw.epilog.sink.split.i7 ]
  %cmp.i.i.i = icmp ne i8 %0, %2
  %cmp3.i.i.i = icmp ne i32 %operatorKind.0.i, %operatorKind.0.i9
  %.not.i.i = select i1 %cmp.i.i.i, i1 true, i1 %cmp3.i.i.i
  br i1 %.not.i.i, label %return, label %lor.rhs

lor.rhs:                                          ; preds = %_ZNK6hermes11Instruction10getVarietyEv.exit12
  %call6 = tail call noundef i32 @_ZNK6hermes11Instruction14getNumOperandsEv(ptr noundef nonnull align 8 dereferenceable(132) %this) #15
  %call7 = tail call noundef i32 @_ZNK6hermes11Instruction14getNumOperandsEv(ptr noundef nonnull align 8 dereferenceable(132) %RHS) #15
  %cmp.not = icmp eq i32 %call6, %call7
  br i1 %cmp.not, label %if.end, label %return

if.end:                                           ; preds = %lor.rhs
  %call8 = tail call noundef i32 @_ZNK6hermes11Instruction14getNumOperandsEv(ptr noundef nonnull align 8 dereferenceable(132) %this) #15
  %cmp9.not13 = icmp eq i32 %call8, 0
  br i1 %cmp9.not13, label %return, label %for.body

for.body:                                         ; preds = %if.end, %for.body
  %i.014 = phi i32 [ %inc, %for.body ], [ 0, %if.end ]
  %call10 = tail call noundef ptr @_ZNK6hermes11Instruction10getOperandEj(ptr noundef nonnull align 8 dereferenceable(132) %this, i32 noundef %i.014) #15
  %call11 = tail call noundef ptr @_ZNK6hermes11Instruction10getOperandEj(ptr noundef nonnull align 8 dereferenceable(132) %RHS, i32 noundef %i.014) #15
  %cmp12.not = icmp eq ptr %call10, %call11
  %inc = add nuw i32 %i.014, 1
  %cmp9.not = icmp ne i32 %inc, %call8
  %or.cond.not = select i1 %cmp12.not, i1 %cmp9.not, i1 false
  br i1 %or.cond.not, label %for.body, label %return, !llvm.loop !11

return:                                           ; preds = %for.body, %if.end, %lor.rhs, %_ZNK6hermes11Instruction10getVarietyEv.exit12
  %retval.0 = phi i1 [ false, %_ZNK6hermes11Instruction10getVarietyEv.exit12 ], [ false, %lor.rhs ], [ true, %if.end ], [ %cmp12.not, %for.body ]
  ret i1 %retval.0
}